---
triple:          'arm64-apple-darwin'
binary-path:     'bin/exec'
relocations:
  - { offsetInCU: 0x23C, offset: 0x23C, size: 0x8, addend: 0x0, symName: __ZN5boost3mpi6reduceIj3SumEEvRKNS0_12communicatorERKT_RS6_T0_i, symObjAddr: 0x250, symBinAddr: 0x1000016A4, symSize: 0x78 }
  - { offsetInCU: 0x2B4, offset: 0x2B4, size: 0x8, addend: 0x0, symName: __ZN5boost3mpi6reduceIj3SumEEvRKNS0_12communicatorERKT_T0_i, symObjAddr: 0x344, symBinAddr: 0x100001798, symSize: 0x78 }
  - { offsetInCU: 0x937, offset: 0x937, size: 0x8, addend: 0x0, symName: __ZN5boost3mpi6detail11reduce_implIj3SumEEvRKNS0_12communicatorEPKT_iPS7_T0_iN4mpl_5bool_ILb0EEENSD_ILb1EEE, symObjAddr: 0x5DC, symBinAddr: 0x100001A30, symSize: 0x180 }
  - { offsetInCU: 0x9F5, offset: 0x9F5, size: 0x8, addend: 0x0, symName: __ZN5boost3mpi6detail11reduce_implIj3SumEEvRKNS0_12communicatorEPKT_iT0_iN4mpl_5bool_ILb0EEENSC_ILb1EEE, symObjAddr: 0x75C, symBinAddr: 0x100001BB0, symSize: 0x16C }
  - { offsetInCU: 0xB26, offset: 0xB26, size: 0x8, addend: 0x0, symName: __ZN5boost3mpi16get_mpi_datatypeIjEEP15ompi_datatype_tRKT_, symObjAddr: 0x8F4, symBinAddr: 0x100001D48, symSize: 0x18 }
  - { offsetInCU: 0x14F4, offset: 0x14F4, size: 0x8, addend: 0x0, symName: __ZN5boost6detail16atomic_decrementEPj, symObjAddr: 0x55C, symBinAddr: 0x1000019B0, symSize: 0x30 }
  - { offsetInCU: 0x174A, offset: 0x174A, size: 0x8, addend: 0x0, symName: __ZN5boost16exception_detail20copy_boost_exceptionEPNS_9exceptionEPKS1_, symObjAddr: 0x1210, symBinAddr: 0x100002664, symSize: 0x124 }
  - { offsetInCU: 0x343C, offset: 0x343C, size: 0x8, addend: 0x0, symName: __ZN5boost15throw_exceptionINS_3mpi9exceptionEEEvRKT_, symObjAddr: 0x920, symBinAddr: 0x100001D74, symSize: 0x6C }
  - { offsetInCU: 0x346D, offset: 0x346D, size: 0x8, addend: 0x0, symName: __ZN5boost36throw_exception_assert_compatibilityERKSt9exception, symObjAddr: 0xB98, symBinAddr: 0x100001FEC, symSize: 0x10 }
  - { offsetInCU: 0x3496, offset: 0x3496, size: 0x8, addend: 0x0, symName: __ZN5boost4core19uncaught_exceptionsEv, symObjAddr: 0x1920, symBinAddr: 0x100002D74, symSize: 0x14 }
  - { offsetInCU: 0x34DA, offset: 0x34DA, size: 0x8, addend: 0x0, symName: __ZN5boost13serialization16singleton_module8get_lockEv, symObjAddr: 0x0, symBinAddr: 0x100001454, symSize: 0x18 }
  - { offsetInCU: 0x34FD, offset: 0x34FD, size: 0x8, addend: 0x0, symName: __ZZN5boost13serialization16singleton_module8get_lockEvE4lock, symObjAddr: 0x2584, symBinAddr: 0x100008000, symSize: 0x0 }
  - { offsetInCU: 0x6BDB, offset: 0x6BDB, size: 0x8, addend: 0x0, symName: __ZNSt3__124__put_character_sequenceB8ue170006IcNS_11char_traitsIcEEEERNS_13basic_ostreamIT_T0_EES7_PKS4_m, symObjAddr: 0x1934, symBinAddr: 0x100002D88, symSize: 0x1EC }
  - { offsetInCU: 0x8572, offset: 0x8572, size: 0x8, addend: 0x0, symName: __ZNSt3__1lsB8ue170006INS_11char_traitsIcEEEERNS_13basic_ostreamIcT_EES6_c, symObjAddr: 0x2C8, symBinAddr: 0x10000171C, symSize: 0x34 }
  - { offsetInCU: 0x85B8, offset: 0x85B8, size: 0x8, addend: 0x0, symName: __ZNSt3__1lsB8ue170006INS_11char_traitsIcEEEERNS_13basic_ostreamIcT_EES6_PKc, symObjAddr: 0x2FC, symBinAddr: 0x100001750, symSize: 0x48 }
  - { offsetInCU: 0x85FF, offset: 0x85FF, size: 0x8, addend: 0x0, symName: __ZNSt3__19transformB8ue170006IPjS1_S1_3SumEET1_T_S4_T0_S3_T2_, symObjAddr: 0xAE0, symBinAddr: 0x100001F34, symSize: 0x94 }
  - { offsetInCU: 0x8686, offset: 0x8686, size: 0x8, addend: 0x0, symName: __ZNSt3__112__to_addressB8ue170006IKcEEPT_S3_, symObjAddr: 0x16B4, symBinAddr: 0x100002B08, symSize: 0x14 }
  - { offsetInCU: 0x86EE, offset: 0x86EE, size: 0x8, addend: 0x0, symName: __ZNSt3__116__pad_and_outputB8ue170006IcNS_11char_traitsIcEEEENS_19ostreambuf_iteratorIT_T0_EES6_PKS4_S8_S8_RNS_8ios_baseES4_, symObjAddr: 0x1B70, symBinAddr: 0x100002FC4, symSize: 0x240 }
  - { offsetInCU: 0x87BD, offset: 0x87BD, size: 0x8, addend: 0x0, symName: __ZNSt3__112__to_addressB8ue170006IcEEPT_S2_, symObjAddr: 0x20D8, symBinAddr: 0x10000352C, symSize: 0x14 }
  - { offsetInCU: 0x87F3, offset: 0x87F3, size: 0x8, addend: 0x0, symName: __ZNSt3__19use_facetB8ue170006INS_5ctypeIcEEEERKT_RKNS_6localeE, symObjAddr: 0x2320, symBinAddr: 0x100003774, symSize: 0x2C }
  - { offsetInCU: 0x8CC0, offset: 0x8CC0, size: 0x8, addend: 0x0, symName: __ZNSt3__118__constexpr_strlenB8ue170006EPKc, symObjAddr: 0x23B8, symBinAddr: 0x10000380C, symSize: 0x24 }
  - { offsetInCU: 0xBA73, offset: 0xBA73, size: 0x8, addend: 0x0, symName: _main, symObjAddr: 0x18, symBinAddr: 0x10000146C, symSize: 0x238 }
  - { offsetInCU: 0xBE2E, offset: 0xBE2E, size: 0x8, addend: 0x0, symName: __ZN5boost3mpi12communicatorD1Ev, symObjAddr: 0x3BC, symBinAddr: 0x100001810, symSize: 0x2C }
  - { offsetInCU: 0xBE59, offset: 0xBE59, size: 0x8, addend: 0x0, symName: __ZN5boost3mpi12communicatorD2Ev, symObjAddr: 0x3E8, symBinAddr: 0x10000183C, symSize: 0x2C }
  - { offsetInCU: 0xBE84, offset: 0xBE84, size: 0x8, addend: 0x0, symName: __ZN5boost10shared_ptrIP19ompi_communicator_tED1Ev, symObjAddr: 0x414, symBinAddr: 0x100001868, symSize: 0x2C }
  - { offsetInCU: 0xBEAF, offset: 0xBEAF, size: 0x8, addend: 0x0, symName: __ZN5boost10shared_ptrIP19ompi_communicator_tED2Ev, symObjAddr: 0x440, symBinAddr: 0x100001894, symSize: 0x30 }
  - { offsetInCU: 0xBEDA, offset: 0xBEDA, size: 0x8, addend: 0x0, symName: __ZN5boost6detail12shared_countD1Ev, symObjAddr: 0x470, symBinAddr: 0x1000018C4, symSize: 0x2C }
  - { offsetInCU: 0xBF03, offset: 0xBF03, size: 0x8, addend: 0x0, symName: __ZN5boost6detail12shared_countD2Ev, symObjAddr: 0x49C, symBinAddr: 0x1000018F0, symSize: 0x5C }
  - { offsetInCU: 0xBF2C, offset: 0xBF2C, size: 0x8, addend: 0x0, symName: __ZN5boost6detail15sp_counted_base7releaseEv, symObjAddr: 0x4F8, symBinAddr: 0x10000194C, symSize: 0x58 }
  - { offsetInCU: 0xBF51, offset: 0xBF51, size: 0x8, addend: 0x0, symName: __ZN5boost6detail15sp_counted_base12weak_releaseEv, symObjAddr: 0x58C, symBinAddr: 0x1000019E0, symSize: 0x50 }
  - { offsetInCU: 0xBFC9, offset: 0xBFC9, size: 0x8, addend: 0x0, symName: __ZN5boost3mpi6detail7user_opI3SumjEC1Ev, symObjAddr: 0x8C8, symBinAddr: 0x100001D1C, symSize: 0x2C }
  - { offsetInCU: 0xBFF1, offset: 0xBFF1, size: 0x8, addend: 0x0, symName: __ZN5boost3mpi6detail7user_opI3SumjE10get_mpi_opEv, symObjAddr: 0x90C, symBinAddr: 0x100001D60, symSize: 0x14 }
  - { offsetInCU: 0xC016, offset: 0xC016, size: 0x8, addend: 0x0, symName: __ZN5boost3mpi6detail7user_opI3SumjED1Ev, symObjAddr: 0x98C, symBinAddr: 0x100001DE0, symSize: 0x2C }
  - { offsetInCU: 0xC03F, offset: 0xC03F, size: 0x8, addend: 0x0, symName: __ZN5boost3mpi6detail7user_opI3SumjEC2Ev, symObjAddr: 0x9B8, symBinAddr: 0x100001E0C, symSize: 0xD0 }
  - { offsetInCU: 0xC07D, offset: 0xC07D, size: 0x8, addend: 0x0, symName: __ZN5boost3mpi6detail7user_opI3SumjE7performEPvS5_PiPP15ompi_datatype_t, symObjAddr: 0xA88, symBinAddr: 0x100001EDC, symSize: 0x58 }
  - { offsetInCU: 0xC0F7, offset: 0xC0F7, size: 0x8, addend: 0x0, symName: __ZN3SumclEjj, symObjAddr: 0xB74, symBinAddr: 0x100001FC8, symSize: 0x24 }
  - { offsetInCU: 0xC138, offset: 0xC138, size: 0x8, addend: 0x0, symName: __ZN5boost10wrapexceptINS_3mpi9exceptionEEC1ERKS2_, symObjAddr: 0xBA8, symBinAddr: 0x100001FFC, symSize: 0x34 }
  - { offsetInCU: 0xC16F, offset: 0xC16F, size: 0x8, addend: 0x0, symName: __ZN5boost10wrapexceptINS_3mpi9exceptionEED1Ev, symObjAddr: 0xBDC, symBinAddr: 0x100002030, symSize: 0x2C }
  - { offsetInCU: 0xC19A, offset: 0xC19A, size: 0x8, addend: 0x0, symName: __ZN5boost10wrapexceptINS_3mpi9exceptionEEC2ERKS2_, symObjAddr: 0xC08, symBinAddr: 0x10000205C, symSize: 0xFC }
  - { offsetInCU: 0xC1D1, offset: 0xC1D1, size: 0x8, addend: 0x0, symName: __ZN5boost16exception_detail10clone_baseC2Ev, symObjAddr: 0xD04, symBinAddr: 0x100002158, symSize: 0x24 }
  - { offsetInCU: 0xC1FD, offset: 0xC1FD, size: 0x8, addend: 0x0, symName: __ZN5boost3mpi9exceptionC2ERKS1_, symObjAddr: 0xD28, symBinAddr: 0x10000217C, symSize: 0x9C }
  - { offsetInCU: 0xC231, offset: 0xC231, size: 0x8, addend: 0x0, symName: __ZN5boost9exceptionC2Ev, symObjAddr: 0xDC4, symBinAddr: 0x100002218, symSize: 0x54 }
  - { offsetInCU: 0xC259, offset: 0xC259, size: 0x8, addend: 0x0, symName: __ZN5boost10wrapexceptINS_3mpi9exceptionEE9copy_fromEPKv, symObjAddr: 0xE18, symBinAddr: 0x10000226C, symSize: 0x14 }
  - { offsetInCU: 0xC288, offset: 0xC288, size: 0x8, addend: 0x0, symName: __ZN5boost9exceptionD2Ev, symObjAddr: 0xE2C, symBinAddr: 0x100002280, symSize: 0x40 }
  - { offsetInCU: 0xC2B3, offset: 0xC2B3, size: 0x8, addend: 0x0, symName: __ZN5boost16exception_detail10clone_baseD2Ev, symObjAddr: 0xE6C, symBinAddr: 0x1000022C0, symSize: 0x14 }
  - { offsetInCU: 0xC2DC, offset: 0xC2DC, size: 0x8, addend: 0x0, symName: __ZNK5boost10wrapexceptINS_3mpi9exceptionEE5cloneEv, symObjAddr: 0xE80, symBinAddr: 0x1000022D4, symSize: 0xE4 }
  - { offsetInCU: 0xC31D, offset: 0xC31D, size: 0x8, addend: 0x0, symName: __ZNK5boost10wrapexceptINS_3mpi9exceptionEE7rethrowEv, symObjAddr: 0xF64, symBinAddr: 0x1000023B8, symSize: 0x6C }
  - { offsetInCU: 0xC342, offset: 0xC342, size: 0x8, addend: 0x0, symName: __ZN5boost10wrapexceptINS_3mpi9exceptionEED0Ev, symObjAddr: 0xFD0, symBinAddr: 0x100002424, symSize: 0x30 }
  - { offsetInCU: 0xC36D, offset: 0xC36D, size: 0x8, addend: 0x0, symName: __ZThn8_N5boost10wrapexceptINS_3mpi9exceptionEED1Ev, symObjAddr: 0x1000, symBinAddr: 0x100002454, symSize: 0x1C }
  - { offsetInCU: 0xC383, offset: 0xC383, size: 0x8, addend: 0x0, symName: __ZThn8_N5boost10wrapexceptINS_3mpi9exceptionEED0Ev, symObjAddr: 0x101C, symBinAddr: 0x100002470, symSize: 0x18 }
  - { offsetInCU: 0xC399, offset: 0xC399, size: 0x8, addend: 0x0, symName: __ZNK5boost3mpi9exception4whatEv, symObjAddr: 0x1034, symBinAddr: 0x100002488, symSize: 0x28 }
  - { offsetInCU: 0xC3BE, offset: 0xC3BE, size: 0x8, addend: 0x0, symName: __ZThn56_N5boost10wrapexceptINS_3mpi9exceptionEED1Ev, symObjAddr: 0x105C, symBinAddr: 0x1000024B0, symSize: 0x1C }
  - { offsetInCU: 0xC3D4, offset: 0xC3D4, size: 0x8, addend: 0x0, symName: __ZThn56_N5boost10wrapexceptINS_3mpi9exceptionEED0Ev, symObjAddr: 0x1078, symBinAddr: 0x1000024CC, symSize: 0x18 }
  - { offsetInCU: 0xC3EA, offset: 0xC3EA, size: 0x8, addend: 0x0, symName: __ZN5boost16exception_detail10clone_baseD1Ev, symObjAddr: 0x1090, symBinAddr: 0x1000024E4, symSize: 0x14 }
  - { offsetInCU: 0xC413, offset: 0xC413, size: 0x8, addend: 0x0, symName: __ZN5boost16exception_detail10clone_baseD0Ev, symObjAddr: 0x10A4, symBinAddr: 0x1000024F8, symSize: 0xC }
  - { offsetInCU: 0xC43C, offset: 0xC43C, size: 0x8, addend: 0x0, symName: __ZNSt9exceptionC2B8ue170006ERKS_, symObjAddr: 0x10B0, symBinAddr: 0x100002504, symSize: 0x28 }
  - { offsetInCU: 0xC46F, offset: 0xC46F, size: 0x8, addend: 0x0, symName: __ZN5boost16exception_detail12refcount_ptrINS0_20error_info_containerEEC1Ev, symObjAddr: 0x10D8, symBinAddr: 0x10000252C, symSize: 0x2C }
  - { offsetInCU: 0xC498, offset: 0xC498, size: 0x8, addend: 0x0, symName: __ZN5boost16exception_detail12refcount_ptrINS0_20error_info_containerEEC2Ev, symObjAddr: 0x1104, symBinAddr: 0x100002558, symSize: 0x18 }
  - { offsetInCU: 0xC4C1, offset: 0xC4C1, size: 0x8, addend: 0x0, symName: __ZN5boost16exception_detail12refcount_ptrINS0_20error_info_containerEED1Ev, symObjAddr: 0x111C, symBinAddr: 0x100002570, symSize: 0x2C }
  - { offsetInCU: 0xC4EA, offset: 0xC4EA, size: 0x8, addend: 0x0, symName: __ZN5boost16exception_detail12refcount_ptrINS0_20error_info_containerEED2Ev, symObjAddr: 0x1148, symBinAddr: 0x10000259C, symSize: 0x34 }
  - { offsetInCU: 0xC513, offset: 0xC513, size: 0x8, addend: 0x0, symName: __ZN5boost16exception_detail12refcount_ptrINS0_20error_info_containerEE7releaseEv, symObjAddr: 0x117C, symBinAddr: 0x1000025D0, symSize: 0x60 }
  - { offsetInCU: 0xC53D, offset: 0xC53D, size: 0x8, addend: 0x0, symName: __ZN5boost10wrapexceptINS_3mpi9exceptionEEC1ERKS3_, symObjAddr: 0x11DC, symBinAddr: 0x100002630, symSize: 0x34 }
  - { offsetInCU: 0xC57B, offset: 0xC57B, size: 0x8, addend: 0x0, symName: __ZN5boost10wrapexceptINS_3mpi9exceptionEE7deleterD1Ev, symObjAddr: 0x1334, symBinAddr: 0x100002788, symSize: 0x2C }
  - { offsetInCU: 0xC5A4, offset: 0xC5A4, size: 0x8, addend: 0x0, symName: __ZN5boost10wrapexceptINS_3mpi9exceptionEEC2ERKS3_, symObjAddr: 0x1360, symBinAddr: 0x1000027B4, symSize: 0xDC }
  - { offsetInCU: 0xC5DD, offset: 0xC5DD, size: 0x8, addend: 0x0, symName: __ZN5boost16exception_detail10clone_baseC2ERKS1_, symObjAddr: 0x143C, symBinAddr: 0x100002890, symSize: 0x28 }
  - { offsetInCU: 0xC617, offset: 0xC617, size: 0x8, addend: 0x0, symName: __ZN5boost9exceptionC2ERKS0_, symObjAddr: 0x1464, symBinAddr: 0x1000028B8, symSize: 0x60 }
  - { offsetInCU: 0xC64B, offset: 0xC64B, size: 0x8, addend: 0x0, symName: __ZN5boost16exception_detail12refcount_ptrINS0_20error_info_containerEEC1ERKS3_, symObjAddr: 0x14C4, symBinAddr: 0x100002918, symSize: 0x34 }
  - { offsetInCU: 0xC682, offset: 0xC682, size: 0x8, addend: 0x0, symName: __ZN5boost16exception_detail12refcount_ptrINS0_20error_info_containerEEC2ERKS3_, symObjAddr: 0x14F8, symBinAddr: 0x10000294C, symSize: 0x3C }
  - { offsetInCU: 0xC6B9, offset: 0xC6B9, size: 0x8, addend: 0x0, symName: __ZN5boost16exception_detail12refcount_ptrINS0_20error_info_containerEE7add_refEv, symObjAddr: 0x1534, symBinAddr: 0x100002988, symSize: 0x50 }
  - { offsetInCU: 0xC6DD, offset: 0xC6DD, size: 0x8, addend: 0x0, symName: __ZNK5boost16exception_detail12refcount_ptrINS0_20error_info_containerEE3getEv, symObjAddr: 0x1584, symBinAddr: 0x1000029D8, symSize: 0x18 }
  - { offsetInCU: 0xC702, offset: 0xC702, size: 0x8, addend: 0x0, symName: __ZN5boost16exception_detail12refcount_ptrINS0_20error_info_containerEEaSERKS3_, symObjAddr: 0x159C, symBinAddr: 0x1000029F0, symSize: 0x38 }
  - { offsetInCU: 0xC735, offset: 0xC735, size: 0x8, addend: 0x0, symName: __ZN5boost16exception_detail12refcount_ptrINS0_20error_info_containerEE5adoptEPS2_, symObjAddr: 0x15D4, symBinAddr: 0x100002A28, symSize: 0x3C }
  - { offsetInCU: 0xC768, offset: 0xC768, size: 0x8, addend: 0x0, symName: __ZN5boost10wrapexceptINS_3mpi9exceptionEE7deleterD2Ev, symObjAddr: 0x1610, symBinAddr: 0x100002A64, symSize: 0x58 }
  - { offsetInCU: 0xC791, offset: 0xC791, size: 0x8, addend: 0x0, symName: __ZNKSt3__112basic_stringIcNS_11char_traitsIcEENS_9allocatorIcEEE5c_strB8ue170006Ev, symObjAddr: 0x1668, symBinAddr: 0x100002ABC, symSize: 0x24 }
  - { offsetInCU: 0xC7B6, offset: 0xC7B6, size: 0x8, addend: 0x0, symName: __ZNKSt3__112basic_stringIcNS_11char_traitsIcEENS_9allocatorIcEEE4dataB8ue170006Ev, symObjAddr: 0x168C, symBinAddr: 0x100002AE0, symSize: 0x28 }
  - { offsetInCU: 0xC7DB, offset: 0xC7DB, size: 0x8, addend: 0x0, symName: __ZNKSt3__112basic_stringIcNS_11char_traitsIcEENS_9allocatorIcEEE13__get_pointerB8ue170006Ev, symObjAddr: 0x16C8, symBinAddr: 0x100002B1C, symSize: 0x54 }
  - { offsetInCU: 0xC800, offset: 0xC800, size: 0x8, addend: 0x0, symName: __ZNKSt3__112basic_stringIcNS_11char_traitsIcEENS_9allocatorIcEEE9__is_longB8ue170006Ev, symObjAddr: 0x171C, symBinAddr: 0x100002B70, symSize: 0x38 }
  - { offsetInCU: 0xC825, offset: 0xC825, size: 0x8, addend: 0x0, symName: __ZNKSt3__112basic_stringIcNS_11char_traitsIcEENS_9allocatorIcEEE18__get_long_pointerB8ue170006Ev, symObjAddr: 0x1754, symBinAddr: 0x100002BA8, symSize: 0x28 }
  - { offsetInCU: 0xC84A, offset: 0xC84A, size: 0x8, addend: 0x0, symName: __ZNKSt3__112basic_stringIcNS_11char_traitsIcEENS_9allocatorIcEEE19__get_short_pointerB8ue170006Ev, symObjAddr: 0x177C, symBinAddr: 0x100002BD0, symSize: 0x28 }
  - { offsetInCU: 0xC86F, offset: 0xC86F, size: 0x8, addend: 0x0, symName: __ZNKSt3__117__compressed_pairINS_12basic_stringIcNS_11char_traitsIcEENS_9allocatorIcEEE5__repES5_E5firstB8ue170006Ev, symObjAddr: 0x17A4, symBinAddr: 0x100002BF8, symSize: 0x24 }
  - { offsetInCU: 0xC893, offset: 0xC893, size: 0x8, addend: 0x0, symName: __ZNKSt3__122__compressed_pair_elemINS_12basic_stringIcNS_11char_traitsIcEENS_9allocatorIcEEE5__repELi0ELb0EE5__getB8ue170006Ev, symObjAddr: 0x17C8, symBinAddr: 0x100002C1C, symSize: 0x14 }
  - { offsetInCU: 0xC8B8, offset: 0xC8B8, size: 0x8, addend: 0x0, symName: __ZNSt3__114pointer_traitsIPKcE10pointer_toB8ue170006ERS1_, symObjAddr: 0x17DC, symBinAddr: 0x100002C30, symSize: 0x14 }
  - { offsetInCU: 0xC8DB, offset: 0xC8DB, size: 0x8, addend: 0x0, symName: __ZN5boost10wrapexceptINS_3mpi9exceptionEED2Ev, symObjAddr: 0x17F0, symBinAddr: 0x100002C44, symSize: 0x44 }
  - { offsetInCU: 0xC906, offset: 0xC906, size: 0x8, addend: 0x0, symName: __ZN5boost3mpi6detail7user_opI3SumjED2Ev, symObjAddr: 0x1834, symBinAddr: 0x100002C88, symSize: 0xEC }
  - { offsetInCU: 0xC94C, offset: 0xC94C, size: 0x8, addend: 0x0, symName: __ZNSt3__111char_traitsIcE6lengthB8ue170006EPKc, symObjAddr: 0x1B20, symBinAddr: 0x100002F74, symSize: 0x34 }
  - { offsetInCU: 0xC98C, offset: 0xC98C, size: 0x8, addend: 0x0, symName: __ZNKSt3__113basic_ostreamIcNS_11char_traitsIcEEE6sentrycvbB8ue170006Ev, symObjAddr: 0x1B54, symBinAddr: 0x100002FA8, symSize: 0x1C }
  - { offsetInCU: 0xC9B1, offset: 0xC9B1, size: 0x8, addend: 0x0, symName: __ZNSt3__119ostreambuf_iteratorIcNS_11char_traitsIcEEEC1B8ue170006ERNS_13basic_ostreamIcS2_EE, symObjAddr: 0x1DB0, symBinAddr: 0x100003204, symSize: 0x34 }
  - { offsetInCU: 0xC9E8, offset: 0xC9E8, size: 0x8, addend: 0x0, symName: __ZNKSt3__18ios_base5flagsB8ue170006Ev, symObjAddr: 0x1DE4, symBinAddr: 0x100003238, symSize: 0x18 }
  - { offsetInCU: 0xCA0F, offset: 0xCA0F, size: 0x8, addend: 0x0, symName: __ZNKSt3__19basic_iosIcNS_11char_traitsIcEEE4fillB8ue170006Ev, symObjAddr: 0x1DFC, symBinAddr: 0x100003250, symSize: 0x64 }
  - { offsetInCU: 0xCA35, offset: 0xCA35, size: 0x8, addend: 0x0, symName: __ZNKSt3__119ostreambuf_iteratorIcNS_11char_traitsIcEEE6failedB8ue170006Ev, symObjAddr: 0x1E60, symBinAddr: 0x1000032B4, symSize: 0x24 }
  - { offsetInCU: 0xCA5A, offset: 0xCA5A, size: 0x8, addend: 0x0, symName: __ZNSt3__19basic_iosIcNS_11char_traitsIcEEE8setstateB8ue170006Ej, symObjAddr: 0x1E84, symBinAddr: 0x1000032D8, symSize: 0x2C }
  - { offsetInCU: 0xCA8E, offset: 0xCA8E, size: 0x8, addend: 0x0, symName: __ZNKSt3__18ios_base5widthB8ue170006Ev, symObjAddr: 0x1EB0, symBinAddr: 0x100003304, symSize: 0x18 }
  - { offsetInCU: 0xCAB5, offset: 0xCAB5, size: 0x8, addend: 0x0, symName: __ZNSt3__115basic_streambufIcNS_11char_traitsIcEEE5sputnB8ue170006EPKcl, symObjAddr: 0x1EC8, symBinAddr: 0x10000331C, symSize: 0x3C }
  - { offsetInCU: 0xCAF6, offset: 0xCAF6, size: 0x8, addend: 0x0, symName: __ZNSt3__112basic_stringIcNS_11char_traitsIcEENS_9allocatorIcEEEC1B8ue170006Emc, symObjAddr: 0x1F04, symBinAddr: 0x100003358, symSize: 0x3C }
  - { offsetInCU: 0xCB3D, offset: 0xCB3D, size: 0x8, addend: 0x0, symName: __ZNSt3__112basic_stringIcNS_11char_traitsIcEENS_9allocatorIcEEE4dataB8ue170006Ev, symObjAddr: 0x1F40, symBinAddr: 0x100003394, symSize: 0x28 }
  - { offsetInCU: 0xCB62, offset: 0xCB62, size: 0x8, addend: 0x0, symName: __ZNSt3__18ios_base5widthB8ue170006El, symObjAddr: 0x1F68, symBinAddr: 0x1000033BC, symSize: 0x2C }
  - { offsetInCU: 0xCBA7, offset: 0xCBA7, size: 0x8, addend: 0x0, symName: __ZNSt3__112basic_stringIcNS_11char_traitsIcEENS_9allocatorIcEEEC2B8ue170006Emc, symObjAddr: 0x1F94, symBinAddr: 0x1000033E8, symSize: 0x4C }
  - { offsetInCU: 0xCBF4, offset: 0xCBF4, size: 0x8, addend: 0x0, symName: __ZNSt3__117__compressed_pairINS_12basic_stringIcNS_11char_traitsIcEENS_9allocatorIcEEE5__repES5_EC1B8ue170006INS_18__default_init_tagESA_EEOT_OT0_, symObjAddr: 0x1FE0, symBinAddr: 0x100003434, symSize: 0x3C }
  - { offsetInCU: 0xCC4B, offset: 0xCC4B, size: 0x8, addend: 0x0, symName: __ZNSt3__117__compressed_pairINS_12basic_stringIcNS_11char_traitsIcEENS_9allocatorIcEEE5__repES5_EC2B8ue170006INS_18__default_init_tagESA_EEOT_OT0_, symObjAddr: 0x201C, symBinAddr: 0x100003470, symSize: 0x3C }
  - { offsetInCU: 0xCCA2, offset: 0xCCA2, size: 0x8, addend: 0x0, symName: __ZNSt3__122__compressed_pair_elemINS_12basic_stringIcNS_11char_traitsIcEENS_9allocatorIcEEE5__repELi0ELb0EEC2B8ue170006ENS_18__default_init_tagE, symObjAddr: 0x2058, symBinAddr: 0x1000034AC, symSize: 0x14 }
  - { offsetInCU: 0xCCD5, offset: 0xCCD5, size: 0x8, addend: 0x0, symName: __ZNSt3__122__compressed_pair_elemINS_9allocatorIcEELi1ELb1EEC2B8ue170006ENS_18__default_init_tagE, symObjAddr: 0x206C, symBinAddr: 0x1000034C0, symSize: 0x2C }
  - { offsetInCU: 0xCD08, offset: 0xCD08, size: 0x8, addend: 0x0, symName: __ZNSt3__19allocatorIcEC2B8ue170006Ev, symObjAddr: 0x2098, symBinAddr: 0x1000034EC, symSize: 0x2C }
  - { offsetInCU: 0xCD31, offset: 0xCD31, size: 0x8, addend: 0x0, symName: __ZNSt3__116__non_trivial_ifILb1ENS_9allocatorIcEEEC2B8ue170006Ev, symObjAddr: 0x20C4, symBinAddr: 0x100003518, symSize: 0x14 }
  - { offsetInCU: 0xCD5A, offset: 0xCD5A, size: 0x8, addend: 0x0, symName: __ZNSt3__112basic_stringIcNS_11char_traitsIcEENS_9allocatorIcEEE13__get_pointerB8ue170006Ev, symObjAddr: 0x20EC, symBinAddr: 0x100003540, symSize: 0x54 }
  - { offsetInCU: 0xCD7F, offset: 0xCD7F, size: 0x8, addend: 0x0, symName: __ZNSt3__112basic_stringIcNS_11char_traitsIcEENS_9allocatorIcEEE18__get_long_pointerB8ue170006Ev, symObjAddr: 0x2140, symBinAddr: 0x100003594, symSize: 0x28 }
  - { offsetInCU: 0xCDA4, offset: 0xCDA4, size: 0x8, addend: 0x0, symName: __ZNSt3__112basic_stringIcNS_11char_traitsIcEENS_9allocatorIcEEE19__get_short_pointerB8ue170006Ev, symObjAddr: 0x2168, symBinAddr: 0x1000035BC, symSize: 0x28 }
  - { offsetInCU: 0xCDC9, offset: 0xCDC9, size: 0x8, addend: 0x0, symName: __ZNSt3__117__compressed_pairINS_12basic_stringIcNS_11char_traitsIcEENS_9allocatorIcEEE5__repES5_E5firstB8ue170006Ev, symObjAddr: 0x2190, symBinAddr: 0x1000035E4, symSize: 0x24 }
  - { offsetInCU: 0xCDED, offset: 0xCDED, size: 0x8, addend: 0x0, symName: __ZNSt3__122__compressed_pair_elemINS_12basic_stringIcNS_11char_traitsIcEENS_9allocatorIcEEE5__repELi0ELb0EE5__getB8ue170006Ev, symObjAddr: 0x21B4, symBinAddr: 0x100003608, symSize: 0x14 }
  - { offsetInCU: 0xCE12, offset: 0xCE12, size: 0x8, addend: 0x0, symName: __ZNSt3__114pointer_traitsIPcE10pointer_toB8ue170006ERc, symObjAddr: 0x21C8, symBinAddr: 0x10000361C, symSize: 0x14 }
  - { offsetInCU: 0xCE35, offset: 0xCE35, size: 0x8, addend: 0x0, symName: __ZNSt3__119ostreambuf_iteratorIcNS_11char_traitsIcEEEC2B8ue170006ERNS_13basic_ostreamIcS2_EE, symObjAddr: 0x21DC, symBinAddr: 0x100003630, symSize: 0x54 }
  - { offsetInCU: 0xCE6C, offset: 0xCE6C, size: 0x8, addend: 0x0, symName: __ZNKSt3__19basic_iosIcNS_11char_traitsIcEEE5rdbufB8ue170006Ev, symObjAddr: 0x2230, symBinAddr: 0x100003684, symSize: 0x24 }
  - { offsetInCU: 0xCE92, offset: 0xCE92, size: 0x8, addend: 0x0, symName: __ZNKSt3__18ios_base5rdbufB8ue170006Ev, symObjAddr: 0x2254, symBinAddr: 0x1000036A8, symSize: 0x18 }
  - { offsetInCU: 0xCEB7, offset: 0xCEB7, size: 0x8, addend: 0x0, symName: __ZNSt3__111char_traitsIcE11eq_int_typeB8ue170006Eii, symObjAddr: 0x226C, symBinAddr: 0x1000036C0, symSize: 0x28 }
  - { offsetInCU: 0xCEEA, offset: 0xCEEA, size: 0x8, addend: 0x0, symName: __ZNSt3__111char_traitsIcE3eofB8ue170006Ev, symObjAddr: 0x2294, symBinAddr: 0x1000036E8, symSize: 0x8 }
  - { offsetInCU: 0xCEFE, offset: 0xCEFE, size: 0x8, addend: 0x0, symName: __ZNKSt3__19basic_iosIcNS_11char_traitsIcEEE5widenB8ue170006Ec, symObjAddr: 0x229C, symBinAddr: 0x1000036F0, symSize: 0x84 }
  - { offsetInCU: 0xCF6B, offset: 0xCF6B, size: 0x8, addend: 0x0, symName: __ZNKSt3__15ctypeIcE5widenB8ue170006Ec, symObjAddr: 0x234C, symBinAddr: 0x1000037A0, symSize: 0x38 }
  - { offsetInCU: 0xCF9F, offset: 0xCF9F, size: 0x8, addend: 0x0, symName: __ZNSt3__18ios_base8setstateB8ue170006Ej, symObjAddr: 0x2384, symBinAddr: 0x1000037D8, symSize: 0x34 }
...
